target datalayout = "e-m:e-p270:32:32-p271:32:32-p272:64:64-i64:64-i128:128-f80:128-n8:16:32:64-S128"
target triple = "x86_64-pc-linux-gnu"

%"class.icu_77::InputText" = type <{ ptr, i32, [4 x i8], ptr, i8, [7 x i8], ptr, ptr, i32, [4 x i8] }>

; Function Attrs: mustprogress nounwind uwtable
define void @_ZN6icu_779InputText7setTextEPKci(ptr noundef nonnull align 8 dereferenceable(52) %0, ptr noundef %1, i32 noundef %2) #2 align 2 {
  %4 = alloca ptr, align 8
  %5 = alloca ptr, align 8
  %6 = alloca i32, align 4
  store ptr %0, ptr %4, align 8, !tbaa !3
  store ptr %1, ptr %5, align 8, !tbaa !20
  store i32 %2, ptr %6, align 4, !tbaa !21
  %7 = load ptr, ptr %4, align 8
  %8 = getelementptr inbounds nuw %"class.icu_77::InputText", ptr %7, i32 0, i32 1
  store i32 0, ptr %8, align 8, !tbaa !22
  %9 = getelementptr inbounds nuw %"class.icu_77::InputText", ptr %7, i32 0, i32 4
  store i8 0, ptr %9, align 8, !tbaa !23
  %10 = load ptr, ptr %5, align 8, !tbaa !20
  %11 = getelementptr inbounds nuw %"class.icu_77::InputText", ptr %7, i32 0, i32 7
  store ptr %10, ptr %11, align 8, !tbaa !16
  %12 = load i32, ptr %6, align 4, !tbaa !21
  %13 = icmp eq i32 %12, -1
  br i1 %13, label %14, label %18

14:                                               ; preds = %3
  %15 = load ptr, ptr %5, align 8, !tbaa !20
  %16 = call i64 @strlen(ptr noundef %15) #12
  %17 = trunc i64 %16 to i32
  br label %20

18:                                               ; preds = %3
  %19 = load i32, ptr %6, align 4, !tbaa !21
  br label %20

20:                                               ; preds = %18, %14
  %21 = phi i32 [ %17, %14 ], [ %19, %18 ]
  %22 = getelementptr inbounds nuw %"class.icu_77::InputText", ptr %7, i32 0, i32 8
  store i32 %21, ptr %22, align 8, !tbaa !17
  ret void
}