; Function Attrs: mustprogress nofree nounwind willreturn memory(argmem: readwrite) uwtable
define void @_ZN6icu_779InputText7setTextEPKci(ptr noundef nonnull writeonly align 8 captures(none) dereferenceable(52) initializes((8, 12), (24, 25), (40, 52)) %0, ptr noundef %1, i32 noundef %2) local_unnamed_addr #6 align 2 {
  %4 = getelementptr inbounds nuw i8, ptr %0, i64 8
  store i32 0, ptr %4, align 8, !tbaa !15
  %5 = getelementptr inbounds nuw i8, ptr %0, i64 24
  store i8 0, ptr %5, align 8, !tbaa !16
  %6 = getelementptr inbounds nuw i8, ptr %0, i64 40
  store ptr %1, ptr %6, align 8, !tbaa !17
  %7 = icmp eq i32 %2, -1
  br i1 %7, label %8, label %11

8:                                                ; preds = %3
  %9 = tail call i64 @strlen(ptr noundef nonnull dereferenceable(1) %1) #16
  %10 = trunc i64 %9 to i32
  br label %11

11:                                               ; preds = %3, %8
  %12 = phi i32 [ %10, %8 ], [ %2, %3 ]
  %13 = getelementptr inbounds nuw i8, ptr %0, i64 48
  store i32 %12, ptr %13, align 8, !tbaa !18
  ret void
}